target datalayout = "e-m:e-p270:32:32-p271:32:32-p272:64:64-i64:64-i128:128-f80:128-n8:16:32:64-S128"
target triple = "x86_64-unknown-linux-gnu"

%"class.google::protobuf::internal::InternalMetadata" = type { i64 }
%"class.google::protobuf::internal::CachedSize" = type { i32 }
%"class.google::protobuf::FieldMask" = type { %"class.google::protobuf::Message", %union.anon }
%"class.google::protobuf::Message" = type { %"class.google::protobuf::MessageLite" }
%"class.google::protobuf::MessageLite" = type { ptr, %"class.google::protobuf::internal::InternalMetadata" }
%union.anon = type { %"struct.google::protobuf::FieldMask::Impl_" }
%"struct.google::protobuf::FieldMask::Impl_" = type <{ %"class.google::protobuf::RepeatedPtrField", %"class.google::protobuf::internal::CachedSize", [4 x i8] }>
%"class.google::protobuf::RepeatedPtrField" = type { %"class.google::protobuf::internal::RepeatedPtrFieldBase" }
%"class.google::protobuf::internal::RepeatedPtrFieldBase" = type { ptr, i32, i32, ptr }
%"class.google::protobuf::internal::InternalVisibility" = type { i8 }

@_ZTVN6google8protobuf7MessageE = external unnamed_addr constant { [13 x ptr] }, align 8

; Function Attrs: mustprogress nounwind uwtable
define linkonce_odr hidden void @_ZN6google8protobuf8internal20RepeatedPtrFieldBaseC2EPNS0_5ArenaE(ptr noundef nonnull align 8 dereferenceable(24) %this, ptr noundef %arena) unnamed_addr #5 comdat align 2 {
entry:
  %this.addr = alloca ptr, align 8
  %arena.addr = alloca ptr, align 8
  store ptr %this, ptr %this.addr, align 8
  store ptr %arena, ptr %arena.addr, align 8
  %this1 = load ptr, ptr %this.addr, align 8
  %tagged_rep_or_elem_ = getelementptr inbounds %"class.google::protobuf::internal::RepeatedPtrFieldBase", ptr %this1, i32 0, i32 0
  store ptr null, ptr %tagged_rep_or_elem_, align 8
  %current_size_ = getelementptr inbounds %"class.google::protobuf::internal::RepeatedPtrFieldBase", ptr %this1, i32 0, i32 1
  store i32 0, ptr %current_size_, align 8
  %capacity_proxy_ = getelementptr inbounds %"class.google::protobuf::internal::RepeatedPtrFieldBase", ptr %this1, i32 0, i32 2
  store i32 0, ptr %capacity_proxy_, align 4
  %arena_ = getelementptr inbounds %"class.google::protobuf::internal::RepeatedPtrFieldBase", ptr %this1, i32 0, i32 3
  %0 = load ptr, ptr %arena.addr, align 8
  store ptr %0, ptr %arena_, align 8
  ret void
}

; Function Attrs: mustprogress nounwind uwtable
define linkonce_odr hidden void @_ZN6google8protobuf16RepeatedPtrFieldINSt7__cxx1112basic_stringIcSt11char_traitsIcESaIcEEEEC2EPNS0_5ArenaE(ptr noundef nonnull align 8 dereferenceable(24) %this, ptr noundef %arena) unnamed_addr #5 comdat align 2 {
entry:
  %this.addr = alloca ptr, align 8
  %arena.addr = alloca ptr, align 8
  store ptr %this, ptr %this.addr, align 8
  store ptr %arena, ptr %arena.addr, align 8
  %this1 = load ptr, ptr %this.addr, align 8
  %0 = load ptr, ptr %arena.addr, align 8
  call void @_ZN6google8protobuf8internal20RepeatedPtrFieldBaseC2EPNS0_5ArenaE(ptr noundef nonnull align 8 dereferenceable(24) %this1, ptr noundef %0)
  ret void
}

; Function Attrs: mustprogress nounwind uwtable
define linkonce_odr hidden void @_ZN6google8protobuf8internal18InternalVisibilityC2Ev(ptr noundef nonnull align 1 dereferenceable(1) %this) unnamed_addr #5 comdat align 2 {
entry:
  %this.addr = alloca ptr, align 8
  store ptr %this, ptr %this.addr, align 8
  ret void
}

; Function Attrs: mustprogress nounwind uwtable
define linkonce_odr hidden void @_ZN6google8protobuf8internal16InternalMetadataC2EPNS0_5ArenaE(ptr noundef nonnull align 8 dereferenceable(8) %this, ptr noundef %arena) unnamed_addr #5 comdat align 2 {
entry:
  %this.addr = alloca ptr, align 8
  %arena.addr = alloca ptr, align 8
  store ptr %this, ptr %this.addr, align 8
  store ptr %arena, ptr %arena.addr, align 8
  %this1 = load ptr, ptr %this.addr, align 8
  %0 = load ptr, ptr %arena.addr, align 8
  %1 = ptrtoint ptr %0 to i64
  %ptr_ = getelementptr inbounds %"class.google::protobuf::internal::InternalMetadata", ptr %this1, i32 0, i32 0
  store i64 %1, ptr %ptr_, align 8
  ret void
}

; Function Attrs: mustprogress nounwind uwtable
define linkonce_odr hidden void @_ZN6google8protobuf11MessageLiteD2Ev(ptr noundef nonnull align 8 dereferenceable(16) %this) unnamed_addr #5 comdat align 2 {
entry:
  %this.addr = alloca ptr, align 8
  store ptr %this, ptr %this.addr, align 8
  ret void
}

; Function Attrs: mustprogress nounwind uwtable
define linkonce_odr hidden void @_ZN6google8protobuf8internal10CachedSizeC2Ei(ptr noundef nonnull align 4 dereferenceable(4) %this, i32 noundef %desired) unnamed_addr #5 comdat align 2 {
entry:
  %this.addr = alloca ptr, align 8
  %desired.addr = alloca i32, align 4
  store ptr %this, ptr %this.addr, align 8
  store i32 %desired, ptr %desired.addr, align 4
  %this1 = load ptr, ptr %this.addr, align 8
  %atom_ = getelementptr inbounds %"class.google::protobuf::internal::CachedSize", ptr %this1, i32 0, i32 0
  %0 = load i32, ptr %desired.addr, align 4
  store i32 %0, ptr %atom_, align 4
  ret void
}

; Function Attrs: mustprogress uwtable
define linkonce_odr hidden void @_ZN6google8protobuf16RepeatedPtrFieldINSt7__cxx1112basic_stringIcSt11char_traitsIcESaIcEEEEC2ENS0_8internal18InternalVisibilityEPNS0_5ArenaE(ptr noundef nonnull align 8 dereferenceable(24) %this, ptr noundef %arena) unnamed_addr #4 comdat align 2 {
entry:
  %this.addr = alloca ptr, align 8
  %arena.addr = alloca ptr, align 8
  store ptr %this, ptr %this.addr, align 8
  store ptr %arena, ptr %arena.addr, align 8
  %this1 = load ptr, ptr %this.addr, align 8
  %0 = load ptr, ptr %arena.addr, align 8
  call void @_ZN6google8protobuf16RepeatedPtrFieldINSt7__cxx1112basic_stringIcSt11char_traitsIcESaIcEEEEC2EPNS0_5ArenaE(ptr noundef nonnull align 8 dereferenceable(24) %this1, ptr noundef %0)
  ret void
}

; Function Attrs: mustprogress uwtable
define linkonce_odr hidden void @_ZN6google8protobuf11MessageLite19internal_visibilityEv() #4 comdat align 2 {
entry:
  %retval = alloca %"class.google::protobuf::internal::InternalVisibility", align 1
  call void @_ZN6google8protobuf8internal18InternalVisibilityC2Ev(ptr noundef nonnull align 1 dereferenceable(1) %retval)
  ret void
}

; Function Attrs: mustprogress uwtable
define linkonce_odr hidden void @_ZN6google8protobuf11MessageLiteC2EPNS0_5ArenaE(ptr noundef nonnull align 8 dereferenceable(16) %this, ptr noundef %arena) unnamed_addr #4 comdat align 2 {
entry:
  %this.addr = alloca ptr, align 8
  %arena.addr = alloca ptr, align 8
  store ptr %this, ptr %this.addr, align 8
  store ptr %arena, ptr %arena.addr, align 8
  %this1 = load ptr, ptr %this.addr, align 8
  store ptr getelementptr inbounds ({ [12 x ptr] }, ptr @_ZTVN6google8protobuf11MessageLiteE, i32 0, i32 0, i32 2), ptr %this1, align 8
  %_internal_metadata_ = getelementptr inbounds %"class.google::protobuf::MessageLite", ptr %this1, i32 0, i32 1
  %0 = load ptr, ptr %arena.addr, align 8
  call void @_ZN6google8protobuf8internal16InternalMetadataC2EPNS0_5ArenaE(ptr noundef nonnull align 8 dereferenceable(8) %_internal_metadata_, ptr noundef %0)
  ret void
}

; Function Attrs: mustprogress nounwind uwtable
define linkonce_odr hidden void @_ZN6google8protobuf7MessageD2Ev(ptr noundef nonnull align 8 dereferenceable(16) %this) unnamed_addr #5 comdat align 2 {
entry:
  %this.addr = alloca ptr, align 8
  store ptr %this, ptr %this.addr, align 8
  %this1 = load ptr, ptr %this.addr, align 8
  call void @_ZN6google8protobuf11MessageLiteD2Ev(ptr noundef nonnull align 8 dereferenceable(16) %this1) #3
  ret void
}

; Function Attrs: mustprogress uwtable
define linkonce_odr hidden void @_ZN6google8protobuf9FieldMask10SharedCtorEPNS0_5ArenaE(ptr noundef nonnull align 8 dereferenceable(48) %this, ptr noundef %arena) #4 comdat align 2 {
entry:
  %this.addr.i = alloca ptr, align 8
  %arena.addr.i = alloca ptr, align 8
  %this.addr = alloca ptr, align 8
  %arena.addr = alloca ptr, align 8
  store ptr %this, ptr %this.addr, align 8
  store ptr %arena, ptr %arena.addr, align 8
  %this1 = load ptr, ptr %this.addr, align 8
  %0 = getelementptr inbounds %"class.google::protobuf::FieldMask", ptr %this1, i32 0, i32 1
  call void @_ZN6google8protobuf11MessageLite19internal_visibilityEv()
  %1 = load ptr, ptr %arena.addr, align 8
  store ptr %0, ptr %this.addr.i, align 8
  store ptr %1, ptr %arena.addr.i, align 8
  %this1.i = load ptr, ptr %this.addr.i, align 8
  %2 = load ptr, ptr %arena.addr.i, align 8
  call void @_ZN6google8protobuf16RepeatedPtrFieldINSt7__cxx1112basic_stringIcSt11char_traitsIcESaIcEEEEC2ENS0_8internal18InternalVisibilityEPNS0_5ArenaE(ptr noundef nonnull align 8 dereferenceable(24) %this1.i, ptr noundef %2)
  %_cached_size_.i = getelementptr inbounds %"struct.google::protobuf::FieldMask::Impl_", ptr %this1.i, i32 0, i32 1
  call void @_ZN6google8protobuf8internal10CachedSizeC2Ei(ptr noundef nonnull align 4 dereferenceable(4) %_cached_size_.i, i32 noundef 0) #3
  ret void
}

; Function Attrs: mustprogress uwtable
define linkonce_odr hidden void @_ZN6google8protobuf7MessageC2EPNS0_5ArenaE(ptr noundef nonnull align 8 dereferenceable(16) %this, ptr noundef %arena) unnamed_addr #4 comdat align 2 {
entry:
  %this.addr = alloca ptr, align 8
  %arena.addr = alloca ptr, align 8
  store ptr %this, ptr %this.addr, align 8
  store ptr %arena, ptr %arena.addr, align 8
  %this1 = load ptr, ptr %this.addr, align 8
  %0 = load ptr, ptr %arena.addr, align 8
  call void @_ZN6google8protobuf11MessageLiteC2EPNS0_5ArenaE(ptr noundef nonnull align 8 dereferenceable(16) %this1, ptr noundef %0)
  store ptr getelementptr inbounds ({ [13 x ptr] }, ptr @_ZTVN6google8protobuf7MessageE, i32 0, i32 0, i32 2), ptr %this1, align 8
  ret void
}

; Function Attrs: mustprogress uwtable
define void @_ZN6google8protobuf9FieldMaskC2EPNS0_5ArenaE(ptr noundef nonnull align 8 dereferenceable(48) %this, ptr noundef %arena) unnamed_addr #4 align 2 personality ptr @__gxx_personality_v0 {
entry:
  %this.addr = alloca ptr, align 8
  %arena.addr = alloca ptr, align 8
  %exn.slot = alloca ptr, align 8
  %ehselector.slot = alloca i32, align 4
  store ptr %this, ptr %this.addr, align 8
  store ptr %arena, ptr %arena.addr, align 8
  %this1 = load ptr, ptr %this.addr, align 8
  %0 = load ptr, ptr %arena.addr, align 8
  call void @_ZN6google8protobuf7MessageC2EPNS0_5ArenaE(ptr noundef nonnull align 8 dereferenceable(16) %this1, ptr noundef %0)
  store ptr getelementptr inbounds ({ [13 x ptr] }, ptr @_ZTVN6google8protobuf9FieldMaskE, i32 0, i32 0, i32 2), ptr %this1, align 8
  %1 = load ptr, ptr %arena.addr, align 8
  invoke void @_ZN6google8protobuf9FieldMask10SharedCtorEPNS0_5ArenaE(ptr noundef nonnull align 8 dereferenceable(48) %this1, ptr noundef %1)
          to label %invoke.cont unwind label %lpad

invoke.cont:                                      ; preds = %entry
  ret void

lpad:                                             ; preds = %entry
  %2 = landingpad { ptr, i32 }
          cleanup
  %3 = extractvalue { ptr, i32 } %2, 0
  store ptr %3, ptr %exn.slot, align 8
  %4 = extractvalue { ptr, i32 } %2, 1
  store i32 %4, ptr %ehselector.slot, align 4
  call void @_ZN6google8protobuf7MessageD2Ev(ptr noundef nonnull align 8 dereferenceable(16) %this1) #3
  br label %eh.resume

eh.resume:                                        ; preds = %lpad
  %exn = load ptr, ptr %exn.slot, align 8
  %sel = load i32, ptr %ehselector.slot, align 4
  %lpad.val = insertvalue { ptr, i32 } poison, ptr %exn, 0
  %lpad.val2 = insertvalue { ptr, i32 } %lpad.val, i32 %sel, 1
  resume { ptr, i32 } %lpad.val2
}